; Function Attrs: nounwind uwtable
define ptr @X509_new_ex(ptr noundef %0, ptr noundef %1) local_unnamed_addr #1 {
  %3 = tail call ptr @ASN1_item_new_ex(ptr noundef nonnull @X509_it.local_it, ptr noundef %0, ptr noundef %1) #7
  %.not.i = icmp eq ptr %3, null
  br i1 %.not.i, label %ossl_x509_set0_libctx.exit, label %4

4:                                                ; preds = %2
  %5 = getelementptr inbounds nuw i8, ptr %3, i64 368
  store ptr %0, ptr %5, align 8, !tbaa !3
  %6 = getelementptr inbounds nuw i8, ptr %3, i64 376
  %7 = load ptr, ptr %6, align 8, !tbaa !35
  tail call void @CRYPTO_free(ptr noundef %7, ptr noundef nonnull @.str.2, i32 noundef 150) #7
  store ptr null, ptr %6, align 8, !tbaa !35
  %.not11.i = icmp eq ptr %1, null
  br i1 %.not11.i, label %ossl_x509_set0_libctx.exit, label %8

8:                                                ; preds = %4
  %9 = tail call noalias ptr @CRYPTO_strdup(ptr noundef nonnull %1, ptr noundef nonnull @.str.2, i32 noundef 153) #7
  store ptr %9, ptr %6, align 8, !tbaa !35
  %10 = icmp eq ptr %9, null
  br i1 %10, label %11, label %ossl_x509_set0_libctx.exit

11:                                               ; preds = %8
  tail call void @ASN1_item_free(ptr noundef nonnull %3, ptr noundef nonnull @X509_it.local_it) #7
  br label %ossl_x509_set0_libctx.exit

ossl_x509_set0_libctx.exit:                       ; preds = %8, %4, %2, %11
  %.0 = phi ptr [ null, %11 ], [ null, %2 ], [ %3, %4 ], [ %3, %8 ]
  ret ptr %.0
}